target datalayout = "e-m:e-p270:32:32-p271:32:32-p272:64:64-i64:64-i128:128-f80:128-n8:16:32:64-S128"
target triple = "x86_64-pc-linux-gnu"

%struct._object = type { %union.anon, ptr }
%union.anon = type { i64 }
%struct.itemgetterobject = type { %struct._object, i64, ptr, i64, ptr }

@.str.82 = private unnamed_addr constant [5 x i8] c"O(O)\00", align 1

; Function Attrs: inlinehint nounwind uwtable
define internal ptr @_Py_TYPE(ptr noundef %0) #3 {
  %2 = alloca ptr, align 8
  store ptr %0, ptr %2, align 8, !tbaa !4
  %3 = load ptr, ptr %2, align 8, !tbaa !4
  %4 = getelementptr inbounds nuw %struct._object, ptr %3, i32 0, i32 1
  %5 = load ptr, ptr %4, align 8, !tbaa !38
  ret ptr %5
}

; Function Attrs: nounwind uwtable
define internal ptr @itemgetter_reduce(ptr noundef %0, ptr noundef %1) #0 {
  %3 = alloca ptr, align 8
  %4 = alloca ptr, align 8
  %5 = alloca ptr, align 8
  store ptr %0, ptr %4, align 8, !tbaa !9
  store ptr %1, ptr %5, align 8, !tbaa !4
  %6 = load ptr, ptr %4, align 8, !tbaa !9
  %7 = getelementptr inbounds nuw %struct.itemgetterobject, ptr %6, i32 0, i32 1
  %8 = load i64, ptr %7, align 8, !tbaa !86
  %9 = icmp eq i64 %8, 1
  br i1 %9, label %10, label %17

10:                                               ; preds = %2
  %11 = load ptr, ptr %4, align 8, !tbaa !9
  %12 = call ptr @_Py_TYPE(ptr noundef %11)
  %13 = load ptr, ptr %4, align 8, !tbaa !9
  %14 = getelementptr inbounds nuw %struct.itemgetterobject, ptr %13, i32 0, i32 2
  %15 = load ptr, ptr %14, align 8, !tbaa !84
  %16 = call ptr (ptr, ...) @Py_BuildValue(ptr noundef @.str.82, ptr noundef %12, ptr noundef %15)
  store ptr %16, ptr %3, align 8
  br label %24

17:                                               ; preds = %2
  %18 = load ptr, ptr %4, align 8, !tbaa !9
  %19 = call ptr @_Py_TYPE(ptr noundef %18)
  %20 = load ptr, ptr %4, align 8, !tbaa !9
  %21 = getelementptr inbounds nuw %struct.itemgetterobject, ptr %20, i32 0, i32 2
  %22 = load ptr, ptr %21, align 8, !tbaa !84
  %23 = call ptr (i64, ...) @PyTuple_Pack(i64 noundef 2, ptr noundef %19, ptr noundef %22)
  store ptr %23, ptr %3, align 8
  br label %24

24:                                               ; preds = %17, %10
  %25 = load ptr, ptr %3, align 8
  ret ptr %25
}