; Function Attrs: nounwind uwtable
define internal ptr @itemgetter_reduce(ptr noundef readonly captures(none) %0, ptr readnone captures(none) %1) #0 {
  %3 = getelementptr inbounds nuw i8, ptr %0, i64 16
  %4 = load i64, ptr %3, align 8, !tbaa !79
  %5 = icmp eq i64 %4, 1
  %6 = getelementptr i8, ptr %0, i64 8
  %.val6 = load ptr, ptr %6, align 8, !tbaa !19
  %7 = getelementptr inbounds nuw i8, ptr %0, i64 24
  %8 = load ptr, ptr %7, align 8, !tbaa !77
  br i1 %5, label %9, label %11

9:                                                ; preds = %2
  %10 = tail call ptr (ptr, ...) @Py_BuildValue(ptr noundef nonnull @.str.82, ptr noundef %.val6, ptr noundef %8) #7
  br label %13

11:                                               ; preds = %2
  %12 = tail call ptr (i64, ...) @PyTuple_Pack(i64 noundef 2, ptr noundef %.val6, ptr noundef %8) #7
  br label %13

13:                                               ; preds = %11, %9
  %.0 = phi ptr [ %10, %9 ], [ %12, %11 ]
  ret ptr %.0
}